; Function Attrs: nofree norecurse nosync nounwind memory(readwrite, inaccessiblemem: none) uwtable
define dso_local void @Curl_bufq_reset(ptr noundef captures(none) %0) local_unnamed_addr #4 {
  %2 = load ptr, ptr %0, align 8
  %.not9 = icmp eq ptr %2, null
  br i1 %.not9, label %._crit_edge, label %.lr.ph

.lr.ph:                                           ; preds = %1
  %3 = getelementptr inbounds nuw i8, ptr %0, i64 16
  %.pre = load ptr, ptr %3, align 8
  br label %4

4:                                                ; preds = %.lr.ph, %4
  %5 = phi ptr [ %.pre, %.lr.ph ], [ %6, %4 ]
  %6 = phi ptr [ %2, %.lr.ph ], [ %8, %4 ]
  %7 = load ptr, ptr %6, align 8
  store ptr %7, ptr %0, align 8
  store ptr %5, ptr %6, align 8
  store ptr %6, ptr %3, align 8
  %8 = load ptr, ptr %0, align 8
  %.not = icmp eq ptr %8, null
  br i1 %.not, label %._crit_edge, label %4, !llvm.loop !7

._crit_edge:                                      ; preds = %4, %1
  %9 = getelementptr inbounds nuw i8, ptr %0, i64 8
  store ptr null, ptr %9, align 8
  ret void
}